target datalayout = "e-m:e-p270:32:32-p271:32:32-p272:64:64-i64:64-i128:128-f80:128-n8:16:32:64-S128"
target triple = "x86_64-pc-linux-gnu"

%"class.icu_77::Calendar" = type <{ %"class.icu_77::UObject", [24 x i32], [24 x i8], i8, [7 x i8], double, ptr, i8, i16, i8, i32, i32, i32, i8, i8, i16, [4 x i8], ptr, ptr }>
%"class.icu_77::UObject" = type { ptr }

; Function Attrs: inlinehint mustprogress nounwind uwtable
define linkonce_odr noundef i32 @_ZNK6icu_778Calendar11internalGetE19UCalendarDateFields(ptr noundef nonnull align 8 dereferenceable(192) %0, i32 noundef %1) #4 comdat align 2 {
  %3 = alloca ptr, align 8
  %4 = alloca i32, align 4
  store ptr %0, ptr %3, align 8, !tbaa !36
  store i32 %1, ptr %4, align 4, !tbaa !25
  %5 = load ptr, ptr %3, align 8
  %6 = getelementptr inbounds nuw %"class.icu_77::Calendar", ptr %5, i32 0, i32 1
  %7 = load i32, ptr %4, align 4, !tbaa !25
  %8 = zext i32 %7 to i64
  %9 = getelementptr inbounds nuw [24 x i32], ptr %6, i64 0, i64 %8
  %10 = load i32, ptr %9, align 4, !tbaa !29
  ret i32 %10
}

; Function Attrs: mustprogress uwtable
define noundef i64 @_ZNK6icu_7715ChineseCalendar23handleComputeMonthStartEiiaR10UErrorCode(ptr noundef nonnull align 8 dereferenceable(193) %0, i32 noundef %1, i32 noundef %2, i8 noundef signext %3, ptr noundef nonnull align 4 dereferenceable(4) %4) unnamed_addr #0 align 2 {
  %6 = alloca ptr, align 8
  %7 = alloca i32, align 4
  %8 = alloca i32, align 4
  %9 = alloca i8, align 1
  %10 = alloca ptr, align 8
  %11 = alloca i8, align 1
  store ptr %0, ptr %6, align 8, !tbaa !3
  store i32 %1, ptr %7, align 4, !tbaa !29
  store i32 %2, ptr %8, align 4, !tbaa !29
  store i8 %3, ptr %9, align 1, !tbaa !38
  store ptr %4, ptr %10, align 8, !tbaa !10
  %12 = load ptr, ptr %6, align 8
  call void @llvm.lifetime.start.p0(i64 1, ptr %11) #13
  store i8 0, ptr %11, align 1, !tbaa !39
  %13 = load i8, ptr %9, align 1, !tbaa !38
  %14 = icmp ne i8 %13, 0
  br i1 %14, label %15, label %19

15:                                               ; preds = %5
  %16 = call noundef i32 @_ZNK6icu_778Calendar11internalGetE19UCalendarDateFields(ptr noundef nonnull align 8 dereferenceable(192) %12, i32 noundef 22)
  %17 = icmp ne i32 %16, 0
  %18 = zext i1 %17 to i8
  store i8 %18, ptr %11, align 1, !tbaa !39
  br label %19

19:                                               ; preds = %15, %5
  %20 = load i32, ptr %7, align 4, !tbaa !29
  %21 = load i32, ptr %8, align 4, !tbaa !29
  %22 = load i8, ptr %11, align 1, !tbaa !39, !range !40, !noundef !41
  %23 = trunc i8 %22 to i1
  %24 = load ptr, ptr %10, align 8, !tbaa !10
  %25 = call noundef i64 @_ZNK6icu_7715ChineseCalendar31handleComputeMonthStartWithLeapEiibR10UErrorCode(ptr noundef nonnull align 8 dereferenceable(193) %12, i32 noundef %20, i32 noundef %21, i1 noundef zeroext %23, ptr noundef nonnull align 4 dereferenceable(4) %24)
  call void @llvm.lifetime.end.p0(i64 1, ptr %11) #13
  ret i64 %25
}