; Function Attrs: mustprogress uwtable
define noundef range(i64 -2147483648, 2147483648) i64 @_ZNK6icu_7715ChineseCalendar23handleComputeMonthStartEiiaR10UErrorCode(ptr noundef nonnull align 8 dereferenceable(193) %0, i32 noundef %1, i32 noundef %2, i8 noundef signext %3, ptr noundef nonnull align 4 dereferenceable(4) %4) unnamed_addr #0 align 2 {
  %.not = icmp ne i8 %3, 0
  %6 = getelementptr inbounds nuw i8, ptr %0, i64 96
  %7 = load i32, ptr %6, align 8
  %8 = icmp ne i32 %7, 0
  %.0 = select i1 %.not, i1 %8, i1 false
  %9 = tail call noundef i64 @_ZNK6icu_7715ChineseCalendar31handleComputeMonthStartWithLeapEiibR10UErrorCode(ptr noundef nonnull align 8 dereferenceable(193) %0, i32 noundef %1, i32 noundef %2, i1 noundef zeroext %.0, ptr noundef nonnull align 4 dereferenceable(4) %4)
  ret i64 %9
}